target datalayout = "e-m:e-p270:32:32-p271:32:32-p272:64:64-i64:64-i128:128-f80:128-n8:16:32:64-S128"
target triple = "x86_64-pc-linux-gnu"

@Truth6 = internal global [6 x i64] [i64 -6148914691236517206, i64 -3689348814741910324, i64 -1085102592571150096, i64 -71777214294589696, i64 -281470681808896, i64 -4294967296], align 16

; Function Attrs: inlinehint nounwind uwtable
define internal i32 @If_Dec10WordNum(i32 noundef %0) #2 {
  %2 = alloca i32, align 4
  store i32 %0, ptr %2, align 4, !tbaa !8
  %3 = load i32, ptr %2, align 4, !tbaa !8
  %4 = icmp sle i32 %3, 6
  br i1 %4, label %5, label %6

5:                                                ; preds = %1
  br label %10

6:                                                ; preds = %1
  %7 = load i32, ptr %2, align 4, !tbaa !8
  %8 = sub nsw i32 %7, 6
  %9 = shl i32 1, %8
  br label %10

10:                                               ; preds = %6, %5
  %11 = phi i32 [ 1, %5 ], [ %9, %6 ]
  ret i32 %11
}

; Function Attrs: nounwind uwtable
define void @If_Dec10Cofactors(ptr noundef %0, i32 noundef %1, i32 noundef %2, ptr noundef %3, ptr noundef %4) #0 {
  %6 = alloca ptr, align 8
  %7 = alloca i32, align 4
  %8 = alloca i32, align 4
  %9 = alloca ptr, align 8
  %10 = alloca ptr, align 8
  %11 = alloca i32, align 4
  %12 = alloca i32, align 4
  %13 = alloca i32, align 4
  %14 = alloca i32, align 4
  %15 = alloca i32, align 4
  %16 = alloca i32, align 4
  %17 = alloca i32, align 4
  store ptr %0, ptr %6, align 8, !tbaa !14
  store i32 %1, ptr %7, align 4, !tbaa !8
  store i32 %2, ptr %8, align 4, !tbaa !8
  store ptr %3, ptr %9, align 8, !tbaa !14
  store ptr %4, ptr %10, align 8, !tbaa !14
  call void @llvm.lifetime.start.p0(i64 4, ptr %11) #5
  %18 = load i32, ptr %7, align 4, !tbaa !8
  %19 = call i32 @If_Dec10WordNum(i32 noundef %18)
  store i32 %19, ptr %11, align 4, !tbaa !8
  %20 = load i32, ptr %8, align 4, !tbaa !8
  %21 = icmp slt i32 %20, 6
  br i1 %21, label %22, label %92

22:                                               ; preds = %5
  call void @llvm.lifetime.start.p0(i64 4, ptr %12) #5
  call void @llvm.lifetime.start.p0(i64 4, ptr %13) #5
  %23 = load i32, ptr %8, align 4, !tbaa !8
  %24 = shl i32 1, %23
  store i32 %24, ptr %13, align 4, !tbaa !8
  store i32 0, ptr %12, align 4, !tbaa !8
  br label %25

25:                                               ; preds = %88, %22
  %26 = load i32, ptr %12, align 4, !tbaa !8
  %27 = load i32, ptr %11, align 4, !tbaa !8
  %28 = icmp slt i32 %26, %27
  br i1 %28, label %29, label %91

29:                                               ; preds = %25
  %30 = load ptr, ptr %6, align 8, !tbaa !14
  %31 = load i32, ptr %12, align 4, !tbaa !8
  %32 = sext i32 %31 to i64
  %33 = getelementptr inbounds i64, ptr %30, i64 %32
  %34 = load i64, ptr %33, align 8, !tbaa !16
  %35 = load i32, ptr %8, align 4, !tbaa !8
  %36 = sext i32 %35 to i64
  %37 = getelementptr inbounds [6 x i64], ptr @Truth6, i64 0, i64 %36
  %38 = load i64, ptr %37, align 8, !tbaa !16
  %39 = xor i64 %38, -1
  %40 = and i64 %34, %39
  %41 = load ptr, ptr %6, align 8, !tbaa !14
  %42 = load i32, ptr %12, align 4, !tbaa !8
  %43 = sext i32 %42 to i64
  %44 = getelementptr inbounds i64, ptr %41, i64 %43
  %45 = load i64, ptr %44, align 8, !tbaa !16
  %46 = load i32, ptr %8, align 4, !tbaa !8
  %47 = sext i32 %46 to i64
  %48 = getelementptr inbounds [6 x i64], ptr @Truth6, i64 0, i64 %47
  %49 = load i64, ptr %48, align 8, !tbaa !16
  %50 = xor i64 %49, -1
  %51 = and i64 %45, %50
  %52 = load i32, ptr %13, align 4, !tbaa !8
  %53 = zext i32 %52 to i64
  %54 = shl i64 %51, %53
  %55 = or i64 %40, %54
  %56 = load ptr, ptr %9, align 8, !tbaa !14
  %57 = load i32, ptr %12, align 4, !tbaa !8
  %58 = sext i32 %57 to i64
  %59 = getelementptr inbounds i64, ptr %56, i64 %58
  store i64 %55, ptr %59, align 8, !tbaa !16
  %60 = load ptr, ptr %6, align 8, !tbaa !14
  %61 = load i32, ptr %12, align 4, !tbaa !8
  %62 = sext i32 %61 to i64
  %63 = getelementptr inbounds i64, ptr %60, i64 %62
  %64 = load i64, ptr %63, align 8, !tbaa !16
  %65 = load i32, ptr %8, align 4, !tbaa !8
  %66 = sext i32 %65 to i64
  %67 = getelementptr inbounds [6 x i64], ptr @Truth6, i64 0, i64 %66
  %68 = load i64, ptr %67, align 8, !tbaa !16
  %69 = and i64 %64, %68
  %70 = load ptr, ptr %6, align 8, !tbaa !14
  %71 = load i32, ptr %12, align 4, !tbaa !8
  %72 = sext i32 %71 to i64
  %73 = getelementptr inbounds i64, ptr %70, i64 %72
  %74 = load i64, ptr %73, align 8, !tbaa !16
  %75 = load i32, ptr %8, align 4, !tbaa !8
  %76 = sext i32 %75 to i64
  %77 = getelementptr inbounds [6 x i64], ptr @Truth6, i64 0, i64 %76
  %78 = load i64, ptr %77, align 8, !tbaa !16
  %79 = and i64 %74, %78
  %80 = load i32, ptr %13, align 4, !tbaa !8
  %81 = zext i32 %80 to i64
  %82 = lshr i64 %79, %81
  %83 = or i64 %69, %82
  %84 = load ptr, ptr %10, align 8, !tbaa !14
  %85 = load i32, ptr %12, align 4, !tbaa !8
  %86 = sext i32 %85 to i64
  %87 = getelementptr inbounds i64, ptr %84, i64 %86
  store i64 %83, ptr %87, align 8, !tbaa !16
  br label %88

88:                                               ; preds = %29
  %89 = load i32, ptr %12, align 4, !tbaa !8
  %90 = add nsw i32 %89, 1
  store i32 %90, ptr %12, align 4, !tbaa !8
  br label %25, !llvm.loop !31

91:                                               ; preds = %25
  store i32 1, ptr %14, align 4
  call void @llvm.lifetime.end.p0(i64 4, ptr %13) #5
  call void @llvm.lifetime.end.p0(i64 4, ptr %12) #5
  br label %163

92:                                               ; preds = %5
  call void @llvm.lifetime.start.p0(i64 4, ptr %15) #5
  call void @llvm.lifetime.start.p0(i64 4, ptr %16) #5
  call void @llvm.lifetime.start.p0(i64 4, ptr %17) #5
  %93 = load i32, ptr %8, align 4, !tbaa !8
  %94 = sub nsw i32 %93, 6
  %95 = shl i32 1, %94
  store i32 %95, ptr %17, align 4, !tbaa !8
  store i32 0, ptr %16, align 4, !tbaa !8
  br label %96

96:                                               ; preds = %157, %92
  %97 = load i32, ptr %16, align 4, !tbaa !8
  %98 = load i32, ptr %11, align 4, !tbaa !8
  %99 = icmp slt i32 %97, %98
  br i1 %99, label %100, label %162

100:                                              ; preds = %96
  store i32 0, ptr %15, align 4, !tbaa !8
  br label %101

101:                                              ; preds = %138, %100
  %102 = load i32, ptr %15, align 4, !tbaa !8
  %103 = load i32, ptr %17, align 4, !tbaa !8
  %104 = icmp slt i32 %102, %103
  br i1 %104, label %105, label %141

105:                                              ; preds = %101
  %106 = load ptr, ptr %6, align 8, !tbaa !14
  %107 = load i32, ptr %15, align 4, !tbaa !8
  %108 = sext i32 %107 to i64
  %109 = getelementptr inbounds i64, ptr %106, i64 %108
  %110 = load i64, ptr %109, align 8, !tbaa !16
  %111 = load ptr, ptr %9, align 8, !tbaa !14
  %112 = load i32, ptr %17, align 4, !tbaa !8
  %113 = load i32, ptr %15, align 4, !tbaa !8
  %114 = add nsw i32 %112, %113
  %115 = sext i32 %114 to i64
  %116 = getelementptr inbounds i64, ptr %111, i64 %115
  store i64 %110, ptr %116, align 8, !tbaa !16
  %117 = load ptr, ptr %9, align 8, !tbaa !14
  %118 = load i32, ptr %15, align 4, !tbaa !8
  %119 = sext i32 %118 to i64
  %120 = getelementptr inbounds i64, ptr %117, i64 %119
  store i64 %110, ptr %120, align 8, !tbaa !16
  %121 = load ptr, ptr %6, align 8, !tbaa !14
  %122 = load i32, ptr %17, align 4, !tbaa !8
  %123 = load i32, ptr %15, align 4, !tbaa !8
  %124 = add nsw i32 %122, %123
  %125 = sext i32 %124 to i64
  %126 = getelementptr inbounds i64, ptr %121, i64 %125
  %127 = load i64, ptr %126, align 8, !tbaa !16
  %128 = load ptr, ptr %10, align 8, !tbaa !14
  %129 = load i32, ptr %17, align 4, !tbaa !8
  %130 = load i32, ptr %15, align 4, !tbaa !8
  %131 = add nsw i32 %129, %130
  %132 = sext i32 %131 to i64
  %133 = getelementptr inbounds i64, ptr %128, i64 %132
  store i64 %127, ptr %133, align 8, !tbaa !16
  %134 = load ptr, ptr %10, align 8, !tbaa !14
  %135 = load i32, ptr %15, align 4, !tbaa !8
  %136 = sext i32 %135 to i64
  %137 = getelementptr inbounds i64, ptr %134, i64 %136
  store i64 %127, ptr %137, align 8, !tbaa !16
  br label %138

138:                                              ; preds = %105
  %139 = load i32, ptr %15, align 4, !tbaa !8
  %140 = add nsw i32 %139, 1
  store i32 %140, ptr %15, align 4, !tbaa !8
  br label %101, !llvm.loop !32

141:                                              ; preds = %101
  %142 = load i32, ptr %17, align 4, !tbaa !8
  %143 = mul nsw i32 2, %142
  %144 = load ptr, ptr %6, align 8, !tbaa !14
  %145 = sext i32 %143 to i64
  %146 = getelementptr inbounds i64, ptr %144, i64 %145
  store ptr %146, ptr %6, align 8, !tbaa !14
  %147 = load i32, ptr %17, align 4, !tbaa !8
  %148 = mul nsw i32 2, %147
  %149 = load ptr, ptr %9, align 8, !tbaa !14
  %150 = sext i32 %148 to i64
  %151 = getelementptr inbounds i64, ptr %149, i64 %150
  store ptr %151, ptr %9, align 8, !tbaa !14
  %152 = load i32, ptr %17, align 4, !tbaa !8
  %153 = mul nsw i32 2, %152
  %154 = load ptr, ptr %10, align 8, !tbaa !14
  %155 = sext i32 %153 to i64
  %156 = getelementptr inbounds i64, ptr %154, i64 %155
  store ptr %156, ptr %10, align 8, !tbaa !14
  br label %157

157:                                              ; preds = %141
  %158 = load i32, ptr %17, align 4, !tbaa !8
  %159 = mul nsw i32 2, %158
  %160 = load i32, ptr %16, align 4, !tbaa !8
  %161 = add nsw i32 %160, %159
  store i32 %161, ptr %16, align 4, !tbaa !8
  br label %96, !llvm.loop !33

162:                                              ; preds = %96
  store i32 1, ptr %14, align 4
  call void @llvm.lifetime.end.p0(i64 4, ptr %17) #5
  call void @llvm.lifetime.end.p0(i64 4, ptr %16) #5
  call void @llvm.lifetime.end.p0(i64 4, ptr %15) #5
  br label %163

163:                                              ; preds = %162, %91
  call void @llvm.lifetime.end.p0(i64 4, ptr %11) #5
  ret void
}